; ModuleID = '24/2127.c'
source_filename = "24/2127.c"
target datalayout = "e-m:e-p270:32:32-p271:32:32-p272:64:64-i64:64-f80:128-n8:16:32:64-S128"
target triple = "x86_64-pc-linux-gnu"

@.str = private unnamed_addr constant [7 x i8] c"%s\0A%s\0A\00", align 1

; Function Attrs: noinline nounwind uwtable
define dso_local i32 @main() #0 {
  %1 = alloca i32, align 4
  %2 = alloca [200 x [200 x i8]], align 16
  %3 = alloca [4000 x i8], align 16
  %4 = alloca i32, align 4
  %5 = alloca i32, align 4
  %6 = alloca i32, align 4
  %7 = alloca [200 x i32], align 16
  %8 = alloca i32, align 4
  %9 = alloca i32, align 4
  store i32 0, i32* %1, align 4
  store i32 0, i32* %4, align 4
  store i32 0, i32* %5, align 4
  store i32 0, i32* %6, align 4
  %10 = getelementptr inbounds [4000 x i8], [4000 x i8]* %3, i64 0, i64 0
  %11 = call i32 (i8*, ...) bitcast (i32 (...)* @gets to i32 (i8*, ...)*)(i8* %10)
  store i32 0, i32* %4, align 4
  br label %12

12:                                               ; preds = %61, %0
  %13 = load i32, i32* %4, align 4
  %14 = sext i32 %13 to i64
  %15 = getelementptr inbounds [4000 x i8], [4000 x i8]* %3, i64 0, i64 %14
  %16 = load i8, i8* %15, align 1
  %17 = sext i8 %16 to i32
  %18 = icmp ne i32 %17, 0
  br i1 %18, label %19, label %64

19:                                               ; preds = %12
  %20 = load i32, i32* %4, align 4
  %21 = sext i32 %20 to i64
  %22 = getelementptr inbounds [4000 x i8], [4000 x i8]* %3, i64 0, i64 %21
  %23 = load i8, i8* %22, align 1
  %24 = sext i8 %23 to i32
  %25 = icmp eq i32 %24, 32
  br i1 %25, label %26, label %39

26:                                               ; preds = %19
  %27 = load i32, i32* %5, align 4
  %28 = sext i32 %27 to i64
  %29 = getelementptr inbounds [200 x [200 x i8]], [200 x [200 x i8]]* %2, i64 0, i64 %28
  %30 = load i32, i32* %4, align 4
  %31 = load i32, i32* %6, align 4
  %32 = sub nsw i32 %30, %31
  %33 = sext i32 %32 to i64
  %34 = getelementptr inbounds [200 x i8], [200 x i8]* %29, i64 0, i64 %33
  store i8 0, i8* %34, align 1
  %35 = load i32, i32* %5, align 4
  %36 = add nsw i32 %35, 1
  store i32 %36, i32* %5, align 4
  %37 = load i32, i32* %4, align 4
  %38 = add nsw i32 %37, 1
  store i32 %38, i32* %6, align 4
  br label %60

39:                                               ; preds = %19
  %40 = load i32, i32* %4, align 4
  %41 = sext i32 %40 to i64
  %42 = getelementptr inbounds [4000 x i8], [4000 x i8]* %3, i64 0, i64 %41
  %43 = load i8, i8* %42, align 1
  %44 = sext i8 %43 to i32
  %45 = icmp ne i32 %44, 44
  br i1 %45, label %46, label %59

46:                                               ; preds = %39
  %47 = load i32, i32* %4, align 4
  %48 = sext i32 %47 to i64
  %49 = getelementptr inbounds [4000 x i8], [4000 x i8]* %3, i64 0, i64 %48
  %50 = load i8, i8* %49, align 1
  %51 = load i32, i32* %5, align 4
  %52 = sext i32 %51 to i64
  %53 = getelementptr inbounds [200 x [200 x i8]], [200 x [200 x i8]]* %2, i64 0, i64 %52
  %54 = load i32, i32* %4, align 4
  %55 = load i32, i32* %6, align 4
  %56 = sub nsw i32 %54, %55
  %57 = sext i32 %56 to i64
  %58 = getelementptr inbounds [200 x i8], [200 x i8]* %53, i64 0, i64 %57
  store i8 %50, i8* %58, align 1
  br label %59

59:                                               ; preds = %46, %39
  br label %60

60:                                               ; preds = %59, %26
  br label %61

61:                                               ; preds = %60
  %62 = load i32, i32* %4, align 4
  %63 = add nsw i32 %62, 1
  store i32 %63, i32* %4, align 4
  br label %12

64:                                               ; preds = %12
  %65 = load i32, i32* %5, align 4
  %66 = sext i32 %65 to i64
  %67 = getelementptr inbounds [200 x [200 x i8]], [200 x [200 x i8]]* %2, i64 0, i64 %66
  %68 = load i32, i32* %4, align 4
  %69 = load i32, i32* %6, align 4
  %70 = sub nsw i32 %68, %69
  %71 = sext i32 %70 to i64
  %72 = getelementptr inbounds [200 x i8], [200 x i8]* %67, i64 0, i64 %71
  store i8 0, i8* %72, align 1
  store i32 0, i32* %4, align 4
  br label %73

73:                                               ; preds = %87, %64
  %74 = load i32, i32* %4, align 4
  %75 = load i32, i32* %5, align 4
  %76 = icmp sle i32 %74, %75
  br i1 %76, label %77, label %90

77:                                               ; preds = %73
  %78 = load i32, i32* %4, align 4
  %79 = sext i32 %78 to i64
  %80 = getelementptr inbounds [200 x [200 x i8]], [200 x [200 x i8]]* %2, i64 0, i64 %79
  %81 = getelementptr inbounds [200 x i8], [200 x i8]* %80, i64 0, i64 0
  %82 = call i64 @strlen(i8* %81) #3
  %83 = trunc i64 %82 to i32
  %84 = load i32, i32* %4, align 4
  %85 = sext i32 %84 to i64
  %86 = getelementptr inbounds [200 x i32], [200 x i32]* %7, i64 0, i64 %85
  store i32 %83, i32* %86, align 4
  br label %87

87:                                               ; preds = %77
  %88 = load i32, i32* %4, align 4
  %89 = add nsw i32 %88, 1
  store i32 %89, i32* %4, align 4
  br label %73

90:                                               ; preds = %73
  %91 = load i32, i32* %5, align 4
  %92 = add nsw i32 %91, 1
  store i32 %92, i32* %5, align 4
  store i32 0, i32* %9, align 4
  store i32 0, i32* %8, align 4
  store i32 0, i32* %4, align 4
  br label %93

93:                                               ; preds = %122, %90
  %94 = load i32, i32* %4, align 4
  %95 = load i32, i32* %5, align 4
  %96 = icmp slt i32 %94, %95
  br i1 %96, label %97, label %125

97:                                               ; preds = %93
  %98 = load i32, i32* %8, align 4
  %99 = sext i32 %98 to i64
  %100 = getelementptr inbounds [200 x i32], [200 x i32]* %7, i64 0, i64 %99
  %101 = load i32, i32* %100, align 4
  %102 = load i32, i32* %4, align 4
  %103 = sext i32 %102 to i64
  %104 = getelementptr inbounds [200 x i32], [200 x i32]* %7, i64 0, i64 %103
  %105 = load i32, i32* %104, align 4
  %106 = icmp slt i32 %101, %105
  br i1 %106, label %107, label %109

107:                                              ; preds = %97
  %108 = load i32, i32* %4, align 4
  store i32 %108, i32* %8, align 4
  br label %109

109:                                              ; preds = %107, %97
  %110 = load i32, i32* %9, align 4
  %111 = sext i32 %110 to i64
  %112 = getelementptr inbounds [200 x i32], [200 x i32]* %7, i64 0, i64 %111
  %113 = load i32, i32* %112, align 4
  %114 = load i32, i32* %4, align 4
  %115 = sext i32 %114 to i64
  %116 = getelementptr inbounds [200 x i32], [200 x i32]* %7, i64 0, i64 %115
  %117 = load i32, i32* %116, align 4
  %118 = icmp sgt i32 %113, %117
  br i1 %118, label %119, label %121

119:                                              ; preds = %109
  %120 = load i32, i32* %4, align 4
  store i32 %120, i32* %9, align 4
  br label %121

121:                                              ; preds = %119, %109
  br label %122

122:                                              ; preds = %121
  %123 = load i32, i32* %4, align 4
  %124 = add nsw i32 %123, 1
  store i32 %124, i32* %4, align 4
  br label %93

125:                                              ; preds = %93
  %126 = load i32, i32* %8, align 4
  %127 = sext i32 %126 to i64
  %128 = getelementptr inbounds [200 x [200 x i8]], [200 x [200 x i8]]* %2, i64 0, i64 %127
  %129 = getelementptr inbounds [200 x i8], [200 x i8]* %128, i64 0, i64 0
  %130 = load i32, i32* %9, align 4
  %131 = sext i32 %130 to i64
  %132 = getelementptr inbounds [200 x [200 x i8]], [200 x [200 x i8]]* %2, i64 0, i64 %131
  %133 = getelementptr inbounds [200 x i8], [200 x i8]* %132, i64 0, i64 0
  %134 = call i32 (i8*, ...) @printf(i8* getelementptr inbounds ([7 x i8], [7 x i8]* @.str, i64 0, i64 0), i8* %129, i8* %133)
  ret i32 0
}

declare dso_local i32 @gets(...) #1

; Function Attrs: nounwind readonly
declare dso_local i64 @strlen(i8*) #2

declare dso_local i32 @printf(i8*, ...) #1


!llvm.module.flags = !{!0}
!llvm.ident = !{!1}

!0 = !{i32 1, !"wchar_size", i32 4}
!1 = !{!"clang version 10.0.0-4ubuntu1 "}
